target datalayout = "e-m:e-p270:32:32-p271:32:32-p272:64:64-i64:64-i128:128-f80:128-n8:16:32:64-S128"
target triple = "x86_64-pc-linux-gnu"

%struct.mi_stats_s = type { %struct.mi_stat_count_s, %struct.mi_stat_count_s, %struct.mi_stat_count_s, %struct.mi_stat_count_s, %struct.mi_stat_count_s, %struct.mi_stat_count_s, %struct.mi_stat_count_s, %struct.mi_stat_count_s, %struct.mi_stat_count_s, %struct.mi_stat_count_s, %struct.mi_stat_count_s, %struct.mi_stat_count_s, %struct.mi_stat_count_s, %struct.mi_stat_count_s, %struct.mi_stat_count_s, %struct.mi_stat_counter_s, %struct.mi_stat_counter_s, %struct.mi_stat_counter_s, %struct.mi_stat_counter_s, %struct.mi_stat_counter_s, %struct.mi_stat_counter_s, %struct.mi_stat_counter_s, %struct.mi_stat_counter_s, %struct.mi_stat_counter_s, %struct.mi_stat_counter_s, %struct.mi_stat_counter_s, %struct.mi_stat_counter_s, %struct.mi_stat_counter_s, %struct.mi_stat_counter_s }
%struct.mi_stat_count_s = type { i64, i64, i64, i64 }
%struct.mi_stat_counter_s = type { i64, i64 }
%struct.mi_memid_s = type { %union.anon, i8, i8, i8, i32 }
%union.anon = type { %struct.mi_memid_os_info }
%struct.mi_memid_os_info = type { ptr, i64 }

@_mi_stats_main = external global %struct.mi_stats_s, align 64
@mi_os_mem_config = internal global { i64, i64, i64, i64, i64, i8, i8, i8, [5 x i8] } { i64 4096, i64 0, i64 4096, i64 34359738368, i64 48, i8 1, i8 0, i8 1, [5 x i8] zeroinitializer }, align 8
@.str.7 = private unnamed_addr constant [77 x i8] c"unable to free OS memory (error: %d (0x%x), size: 0x%zx bytes, address: %p)\0A\00", align 1

; Function Attrs: inlinehint nounwind uwtable
define internal i64 @_mi_align_up(i64 noundef %0, i64 noundef %1) #4 {
  %3 = alloca i64, align 8
  %4 = alloca i64, align 8
  %5 = alloca i64, align 8
  %6 = alloca i64, align 8
  %7 = alloca i32, align 4
  store i64 %0, ptr %4, align 8, !tbaa !14
  store i64 %1, ptr %5, align 8, !tbaa !14
  call void @llvm.lifetime.start.p0(i64 8, ptr %6) #9
  %8 = load i64, ptr %5, align 8, !tbaa !14
  %9 = sub i64 %8, 1
  store i64 %9, ptr %6, align 8, !tbaa !14
  %10 = load i64, ptr %5, align 8, !tbaa !14
  %11 = load i64, ptr %6, align 8, !tbaa !14
  %12 = and i64 %10, %11
  %13 = icmp eq i64 %12, 0
  br i1 %13, label %14, label %21

14:                                               ; preds = %2
  %15 = load i64, ptr %4, align 8, !tbaa !14
  %16 = load i64, ptr %6, align 8, !tbaa !14
  %17 = add i64 %15, %16
  %18 = load i64, ptr %6, align 8, !tbaa !14
  %19 = xor i64 %18, -1
  %20 = and i64 %17, %19
  store i64 %20, ptr %3, align 8
  store i32 1, ptr %7, align 4
  br label %29

21:                                               ; preds = %2
  %22 = load i64, ptr %4, align 8, !tbaa !14
  %23 = load i64, ptr %6, align 8, !tbaa !14
  %24 = add i64 %22, %23
  %25 = load i64, ptr %5, align 8, !tbaa !14
  %26 = udiv i64 %24, %25
  %27 = load i64, ptr %5, align 8, !tbaa !14
  %28 = mul i64 %26, %27
  store i64 %28, ptr %3, align 8
  store i32 1, ptr %7, align 4
  br label %29

29:                                               ; preds = %21, %14
  call void @llvm.lifetime.end.p0(i64 8, ptr %6) #9
  %30 = load i64, ptr %3, align 8
  ret i64 %30
}

; Function Attrs: nounwind uwtable
define hidden i64 @_mi_os_page_size() #0 {
  %1 = load i64, ptr @mi_os_mem_config, align 8, !tbaa !12
  ret i64 %1
}

; Function Attrs: nounwind uwtable
define internal void @mi_os_prim_free(ptr noundef %0, i64 noundef %1, i64 noundef %2) #0 {
  %4 = alloca ptr, align 8
  %5 = alloca i64, align 8
  %6 = alloca i64, align 8
  %7 = alloca i32, align 4
  store ptr %0, ptr %4, align 8, !tbaa !20
  store i64 %1, ptr %5, align 8, !tbaa !14
  store i64 %2, ptr %6, align 8, !tbaa !14
  %8 = load ptr, ptr %4, align 8, !tbaa !20
  %9 = icmp eq ptr %8, null
  br i1 %9, label %13, label %10

10:                                               ; preds = %3
  %11 = load i64, ptr %5, align 8, !tbaa !14
  %12 = icmp eq i64 %11, 0
  br i1 %12, label %13, label %14

13:                                               ; preds = %10, %3
  br label %32

14:                                               ; preds = %10
  call void @llvm.lifetime.start.p0(i64 4, ptr %7) #9
  %15 = load ptr, ptr %4, align 8, !tbaa !20
  %16 = load i64, ptr %5, align 8, !tbaa !14
  %17 = call i32 @_mi_prim_free(ptr noundef %15, i64 noundef %16) #8
  store i32 %17, ptr %7, align 4, !tbaa !25
  %18 = load i32, ptr %7, align 4, !tbaa !25
  %19 = icmp ne i32 %18, 0
  br i1 %19, label %20, label %25

20:                                               ; preds = %14
  %21 = load i32, ptr %7, align 4, !tbaa !25
  %22 = load i32, ptr %7, align 4, !tbaa !25
  %23 = load i64, ptr %5, align 8, !tbaa !14
  %24 = load ptr, ptr %4, align 8, !tbaa !20
  call void (ptr, ...) @_mi_warning_message(ptr noundef @.str.7, i32 noundef %21, i32 noundef %22, i64 noundef %23, ptr noundef %24) #8
  br label %25

25:                                               ; preds = %20, %14
  %26 = load i64, ptr %6, align 8, !tbaa !14
  %27 = icmp ugt i64 %26, 0
  br i1 %27, label %28, label %30

28:                                               ; preds = %25
  %29 = load i64, ptr %6, align 8, !tbaa !14
  call void @_mi_stat_decrease(ptr noundef getelementptr inbounds nuw (%struct.mi_stats_s, ptr @_mi_stats_main, i32 0, i32 3), i64 noundef %29) #8
  br label %30

30:                                               ; preds = %28, %25
  %31 = load i64, ptr %5, align 8, !tbaa !14
  call void @_mi_stat_decrease(ptr noundef getelementptr inbounds nuw (%struct.mi_stats_s, ptr @_mi_stats_main, i32 0, i32 2), i64 noundef %31) #8
  call void @llvm.lifetime.end.p0(i64 4, ptr %7) #9
  br label %32

32:                                               ; preds = %30, %13
  ret void
}

; Function Attrs: nounwind uwtable
define internal void @mi_os_free_huge_os_pages(ptr noundef %0, i64 noundef %1) #0 {
  %3 = alloca ptr, align 8
  %4 = alloca i64, align 8
  %5 = alloca ptr, align 8
  store ptr %0, ptr %3, align 8, !tbaa !20
  store i64 %1, ptr %4, align 8, !tbaa !14
  %6 = load ptr, ptr %3, align 8, !tbaa !20
  %7 = icmp eq ptr %6, null
  br i1 %7, label %11, label %8

8:                                                ; preds = %2
  %9 = load i64, ptr %4, align 8, !tbaa !14
  %10 = icmp eq i64 %9, 0
  br i1 %10, label %11, label %12

11:                                               ; preds = %8, %2
  br label %24

12:                                               ; preds = %8
  call void @llvm.lifetime.start.p0(i64 8, ptr %5) #9
  %13 = load ptr, ptr %3, align 8, !tbaa !20
  store ptr %13, ptr %5, align 8, !tbaa !26
  br label %14

14:                                               ; preds = %17, %12
  %15 = load i64, ptr %4, align 8, !tbaa !14
  %16 = icmp uge i64 %15, 1073741824
  br i1 %16, label %17, label %23

17:                                               ; preds = %14
  %18 = load ptr, ptr %5, align 8, !tbaa !26
  call void @mi_os_prim_free(ptr noundef %18, i64 noundef 1073741824, i64 noundef 1073741824) #8
  %19 = load i64, ptr %4, align 8, !tbaa !14
  %20 = sub i64 %19, 1073741824
  store i64 %20, ptr %4, align 8, !tbaa !14
  %21 = load ptr, ptr %5, align 8, !tbaa !26
  %22 = getelementptr inbounds nuw i8, ptr %21, i64 1073741824
  store ptr %22, ptr %5, align 8, !tbaa !26
  br label %14, !llvm.loop !28

23:                                               ; preds = %14
  call void @llvm.lifetime.end.p0(i64 8, ptr %5) #9
  br label %24

24:                                               ; preds = %23, %11
  ret void
}

; Function Attrs: nounwind uwtable
define hidden i64 @_mi_os_good_alloc_size(i64 noundef %0) #0 {
  %2 = alloca i64, align 8
  %3 = alloca i64, align 8
  %4 = alloca i64, align 8
  %5 = alloca i32, align 4
  store i64 %0, ptr %3, align 8, !tbaa !14
  call void @llvm.lifetime.start.p0(i64 8, ptr %4) #9
  %6 = load i64, ptr %3, align 8, !tbaa !14
  %7 = icmp ult i64 %6, 524288
  br i1 %7, label %8, label %10

8:                                                ; preds = %1
  %9 = call i64 @_mi_os_page_size() #8
  store i64 %9, ptr %4, align 8, !tbaa !14
  br label %26

10:                                               ; preds = %1
  %11 = load i64, ptr %3, align 8, !tbaa !14
  %12 = icmp ult i64 %11, 2097152
  br i1 %12, label %13, label %14

13:                                               ; preds = %10
  store i64 65536, ptr %4, align 8, !tbaa !14
  br label %25

14:                                               ; preds = %10
  %15 = load i64, ptr %3, align 8, !tbaa !14
  %16 = icmp ult i64 %15, 8388608
  br i1 %16, label %17, label %18

17:                                               ; preds = %14
  store i64 262144, ptr %4, align 8, !tbaa !14
  br label %24

18:                                               ; preds = %14
  %19 = load i64, ptr %3, align 8, !tbaa !14
  %20 = icmp ult i64 %19, 33554432
  br i1 %20, label %21, label %22

21:                                               ; preds = %18
  store i64 1048576, ptr %4, align 8, !tbaa !14
  br label %23

22:                                               ; preds = %18
  store i64 4194304, ptr %4, align 8, !tbaa !14
  br label %23

23:                                               ; preds = %22, %21
  br label %24

24:                                               ; preds = %23, %17
  br label %25

25:                                               ; preds = %24, %13
  br label %26

26:                                               ; preds = %25, %8
  %27 = load i64, ptr %3, align 8, !tbaa !14
  %28 = load i64, ptr %4, align 8, !tbaa !14
  %29 = sub i64 -1, %28
  %30 = icmp uge i64 %27, %29
  %31 = xor i1 %30, true
  %32 = xor i1 %31, true
  %33 = zext i1 %32 to i32
  %34 = sext i32 %33 to i64
  %35 = call i64 @llvm.expect.i64(i64 %34, i64 0)
  %36 = icmp ne i64 %35, 0
  br i1 %36, label %37, label %39

37:                                               ; preds = %26
  %38 = load i64, ptr %3, align 8, !tbaa !14
  store i64 %38, ptr %2, align 8
  store i32 1, ptr %5, align 4
  br label %43

39:                                               ; preds = %26
  %40 = load i64, ptr %3, align 8, !tbaa !14
  %41 = load i64, ptr %4, align 8, !tbaa !14
  %42 = call i64 @_mi_align_up(i64 noundef %40, i64 noundef %41) #8
  store i64 %42, ptr %2, align 8
  store i32 1, ptr %5, align 4
  br label %43

43:                                               ; preds = %39, %37
  call void @llvm.lifetime.end.p0(i64 8, ptr %4) #9
  %44 = load i64, ptr %2, align 8
  ret i64 %44
}

; Function Attrs: inlinehint nounwind uwtable
define internal zeroext i1 @mi_memkind_is_os(i32 noundef %0) #4 {
  %2 = alloca i32, align 4
  store i32 %0, ptr %2, align 4, !tbaa !25
  %3 = load i32, ptr %2, align 4, !tbaa !25
  %4 = icmp uge i32 %3, 3
  br i1 %4, label %5, label %8

5:                                                ; preds = %1
  %6 = load i32, ptr %2, align 4, !tbaa !25
  %7 = icmp ule i32 %6, 5
  br label %8

8:                                                ; preds = %5, %1
  %9 = phi i1 [ false, %1 ], [ %7, %5 ]
  ret i1 %9
}

; Function Attrs: nounwind uwtable
define hidden void @_mi_os_free_ex(ptr noundef %0, i64 noundef %1, i1 noundef zeroext %2, ptr noundef byval(%struct.mi_memid_s) align 8 %3) #0 {
  %5 = alloca ptr, align 8
  %6 = alloca i64, align 8
  %7 = alloca i8, align 1
  %8 = alloca i64, align 8
  %9 = alloca i64, align 8
  %10 = alloca ptr, align 8
  %11 = alloca i64, align 8
  store ptr %0, ptr %5, align 8, !tbaa !20
  store i64 %1, ptr %6, align 8, !tbaa !14
  %12 = zext i1 %2 to i8
  store i8 %12, ptr %7, align 1, !tbaa !16
  %13 = getelementptr inbounds nuw %struct.mi_memid_s, ptr %3, i32 0, i32 4
  %14 = load i32, ptr %13, align 4, !tbaa !21
  %15 = call zeroext i1 @mi_memkind_is_os(i32 noundef %14) #8
  br i1 %15, label %16, label %84

16:                                               ; preds = %4
  call void @llvm.lifetime.start.p0(i64 8, ptr %8) #9
  %17 = getelementptr inbounds nuw %struct.mi_memid_s, ptr %3, i32 0, i32 0
  %18 = getelementptr inbounds nuw %struct.mi_memid_os_info, ptr %17, i32 0, i32 1
  %19 = load i64, ptr %18, align 8, !tbaa !24
  store i64 %19, ptr %8, align 8, !tbaa !14
  %20 = load i64, ptr %8, align 8, !tbaa !14
  %21 = icmp eq i64 %20, 0
  br i1 %21, label %22, label %25

22:                                               ; preds = %16
  %23 = load i64, ptr %6, align 8, !tbaa !14
  %24 = call i64 @_mi_os_good_alloc_size(i64 noundef %23) #8
  br label %25

25:                                               ; preds = %22, %16
  call void @llvm.lifetime.start.p0(i64 8, ptr %9) #9
  %26 = load i8, ptr %7, align 1, !tbaa !16, !range !9, !noundef !10
  %27 = trunc i8 %26 to i1
  br i1 %27, label %28, label %30

28:                                               ; preds = %25
  %29 = load i64, ptr %8, align 8, !tbaa !14
  br label %31

30:                                               ; preds = %25
  br label %31

31:                                               ; preds = %30, %28
  %32 = phi i64 [ %29, %28 ], [ 0, %30 ]
  store i64 %32, ptr %9, align 8, !tbaa !14
  call void @llvm.lifetime.start.p0(i64 8, ptr %10) #9
  %33 = load ptr, ptr %5, align 8, !tbaa !20
  store ptr %33, ptr %10, align 8, !tbaa !20
  %34 = getelementptr inbounds nuw %struct.mi_memid_s, ptr %3, i32 0, i32 0
  %35 = getelementptr inbounds nuw %struct.mi_memid_os_info, ptr %34, i32 0, i32 0
  %36 = load ptr, ptr %35, align 8, !tbaa !24
  %37 = load ptr, ptr %10, align 8, !tbaa !20
  %38 = icmp ne ptr %36, %37
  br i1 %38, label %39, label %66

39:                                               ; preds = %31
  %40 = getelementptr inbounds nuw %struct.mi_memid_s, ptr %3, i32 0, i32 0
  %41 = getelementptr inbounds nuw %struct.mi_memid_os_info, ptr %40, i32 0, i32 0
  %42 = load ptr, ptr %41, align 8, !tbaa !24
  store ptr %42, ptr %10, align 8, !tbaa !20
  call void @llvm.lifetime.start.p0(i64 8, ptr %11) #9
  %43 = load ptr, ptr %5, align 8, !tbaa !20
  %44 = getelementptr inbounds nuw %struct.mi_memid_s, ptr %3, i32 0, i32 0
  %45 = getelementptr inbounds nuw %struct.mi_memid_os_info, ptr %44, i32 0, i32 0
  %46 = load ptr, ptr %45, align 8, !tbaa !24
  %47 = ptrtoint ptr %43 to i64
  %48 = ptrtoint ptr %46 to i64
  %49 = sub i64 %47, %48
  store i64 %49, ptr %11, align 8, !tbaa !14
  %50 = getelementptr inbounds nuw %struct.mi_memid_s, ptr %3, i32 0, i32 0
  %51 = getelementptr inbounds nuw %struct.mi_memid_os_info, ptr %50, i32 0, i32 1
  %52 = load i64, ptr %51, align 8, !tbaa !24
  %53 = icmp eq i64 %52, 0
  br i1 %53, label %54, label %58

54:                                               ; preds = %39
  %55 = load i64, ptr %11, align 8, !tbaa !14
  %56 = load i64, ptr %8, align 8, !tbaa !14
  %57 = add i64 %56, %55
  store i64 %57, ptr %8, align 8, !tbaa !14
  br label %58

58:                                               ; preds = %54, %39
  %59 = load i8, ptr %7, align 1, !tbaa !16, !range !9, !noundef !10
  %60 = trunc i8 %59 to i1
  br i1 %60, label %61, label %65

61:                                               ; preds = %58
  %62 = load i64, ptr %11, align 8, !tbaa !14
  %63 = load i64, ptr %9, align 8, !tbaa !14
  %64 = sub i64 %63, %62
  store i64 %64, ptr %9, align 8, !tbaa !14
  br label %65

65:                                               ; preds = %61, %58
  call void @llvm.lifetime.end.p0(i64 8, ptr %11) #9
  br label %66

66:                                               ; preds = %65, %31
  %67 = getelementptr inbounds nuw %struct.mi_memid_s, ptr %3, i32 0, i32 4
  %68 = load i32, ptr %67, align 4, !tbaa !21
  %69 = icmp eq i32 %68, 4
  br i1 %69, label %70, label %73

70:                                               ; preds = %66
  %71 = load ptr, ptr %10, align 8, !tbaa !20
  %72 = load i64, ptr %8, align 8, !tbaa !14
  call void @mi_os_free_huge_os_pages(ptr noundef %71, i64 noundef %72) #8
  br label %83

73:                                               ; preds = %66
  %74 = load ptr, ptr %10, align 8, !tbaa !20
  %75 = load i64, ptr %8, align 8, !tbaa !14
  %76 = load i8, ptr %7, align 1, !tbaa !16, !range !9, !noundef !10
  %77 = trunc i8 %76 to i1
  br i1 %77, label %78, label %80

78:                                               ; preds = %73
  %79 = load i64, ptr %9, align 8, !tbaa !14
  br label %81

80:                                               ; preds = %73
  br label %81

81:                                               ; preds = %80, %78
  %82 = phi i64 [ %79, %78 ], [ 0, %80 ]
  call void @mi_os_prim_free(ptr noundef %74, i64 noundef %75, i64 noundef %82) #8
  br label %83

83:                                               ; preds = %81, %70
  call void @llvm.lifetime.end.p0(i64 8, ptr %10) #9
  call void @llvm.lifetime.end.p0(i64 8, ptr %9) #9
  call void @llvm.lifetime.end.p0(i64 8, ptr %8) #9
  br label %85

84:                                               ; preds = %4
  br label %85

85:                                               ; preds = %84, %83
  ret void
}