; Function Attrs: nounwind uwtable
define hidden void @_mi_os_free_ex(ptr noundef %0, i64 %1, i1 noundef zeroext %2, ptr noundef readonly byval(%struct.mi_memid_s) align 8 captures(none) %3) local_unnamed_addr #1 {
  %5 = getelementptr inbounds nuw i8, ptr %3, i64 20
  %6 = load i32, ptr %5, align 4, !tbaa !18
  %7 = add i32 %6, -3
  %8 = icmp ult i32 %7, 3
  br i1 %8, label %_mi_os_good_alloc_size.exit, label %mi_os_free_huge_os_pages.exit

_mi_os_good_alloc_size.exit:                      ; preds = %4
  %9 = getelementptr inbounds nuw i8, ptr %3, i64 8
  %10 = load i64, ptr %9, align 8, !tbaa !21
  %11 = icmp eq i64 %10, 0
  %12 = load ptr, ptr %3, align 8, !tbaa !21
  %.not = icmp eq ptr %12, %0
  %13 = ptrtoint ptr %0 to i64
  %14 = ptrtoint ptr %12 to i64
  %15 = sub i64 %13, %14
  %spec.select = select i1 %11, i64 %15, i64 %10
  %.0 = select i1 %.not, i64 %10, i64 %spec.select
  %16 = icmp eq i32 %6, 4
  br i1 %16, label %17, label %25

17:                                               ; preds = %_mi_os_good_alloc_size.exit
  %18 = icmp ne ptr %12, null
  %19 = icmp ugt i64 %.0, 1073741823
  %or.cond12.i = and i1 %18, %19
  br i1 %or.cond12.i, label %.lr.ph.i, label %mi_os_free_huge_os_pages.exit

.lr.ph.i:                                         ; preds = %17, %mi_os_prim_free.exit.i
  %.011.i = phi ptr [ %23, %mi_os_prim_free.exit.i ], [ %12, %17 ]
  %.0710.i = phi i64 [ %22, %mi_os_prim_free.exit.i ], [ %.0, %17 ]
  %20 = tail call i32 @_mi_prim_free(ptr noundef nonnull %.011.i, i64 noundef 1073741824) #7
  %.not.i.i = icmp eq i32 %20, 0
  br i1 %.not.i.i, label %mi_os_prim_free.exit.i, label %21

21:                                               ; preds = %.lr.ph.i
  tail call void (ptr, ...) @_mi_warning_message(ptr noundef nonnull @.str.7, i32 noundef %20, i32 noundef %20, i64 noundef 1073741824, ptr noundef nonnull %.011.i) #7
  br label %mi_os_prim_free.exit.i

mi_os_prim_free.exit.i:                           ; preds = %21, %.lr.ph.i
  tail call void @_mi_stat_decrease(ptr noundef nonnull getelementptr inbounds nuw (i8, ptr @_mi_stats_main, i64 96), i64 noundef 1073741824) #7
  tail call void @_mi_stat_decrease(ptr noundef nonnull getelementptr inbounds nuw (i8, ptr @_mi_stats_main, i64 64), i64 noundef 1073741824) #7
  %22 = add i64 %.0710.i, -1073741824
  %23 = getelementptr inbounds nuw i8, ptr %.011.i, i64 1073741824
  %24 = icmp ugt i64 %22, 1073741823
  br i1 %24, label %.lr.ph.i, label %mi_os_free_huge_os_pages.exit, !llvm.loop !22

25:                                               ; preds = %_mi_os_good_alloc_size.exit
  %26 = select i1 %.not, i64 0, i64 %15
  %.018 = sub i64 %10, %26
  %27 = select i1 %2, i64 %.018, i64 0
  %28 = icmp eq ptr %12, null
  %29 = icmp eq i64 %.0, 0
  %or.cond.i = or i1 %28, %29
  br i1 %or.cond.i, label %mi_os_free_huge_os_pages.exit, label %30

30:                                               ; preds = %25
  %31 = tail call i32 @_mi_prim_free(ptr noundef nonnull %12, i64 noundef %.0) #7
  %.not.i23 = icmp eq i32 %31, 0
  br i1 %.not.i23, label %33, label %32

32:                                               ; preds = %30
  tail call void (ptr, ...) @_mi_warning_message(ptr noundef nonnull @.str.7, i32 noundef %31, i32 noundef %31, i64 noundef %.0, ptr noundef nonnull %12) #7
  br label %33

33:                                               ; preds = %32, %30
  %.not15.i = icmp eq i64 %27, 0
  br i1 %.not15.i, label %35, label %34

34:                                               ; preds = %33
  tail call void @_mi_stat_decrease(ptr noundef nonnull getelementptr inbounds nuw (i8, ptr @_mi_stats_main, i64 96), i64 noundef %27) #7
  br label %35

35:                                               ; preds = %34, %33
  tail call void @_mi_stat_decrease(ptr noundef nonnull getelementptr inbounds nuw (i8, ptr @_mi_stats_main, i64 64), i64 noundef %.0) #7
  br label %mi_os_free_huge_os_pages.exit

mi_os_free_huge_os_pages.exit:                    ; preds = %mi_os_prim_free.exit.i, %35, %25, %17, %4
  ret void
}